target datalayout = "e-m:e-p270:32:32-p271:32:32-p272:64:64-i64:64-i128:128-f80:128-n8:16:32:64-S128"
target triple = "x86_64-pc-linux-gnu"

%"struct.std::array" = type { [4 x i32] }
%"class.pbrt::Image" = type { i32, %"class.pbrt::Point2", %"class.pstd::vector", %"class.pbrt::ColorEncoding", %"class.pstd::vector.9", %"class.pstd::vector.11", %"class.pstd::vector.13" }
%"class.pbrt::Point2" = type { %"class.pbrt::Tuple2" }
%"class.pbrt::Tuple2" = type { i32, i32 }
%"class.pstd::vector" = type { %"class.pstd::pmr::polymorphic_allocator", ptr, i64, i64 }
%"class.pstd::pmr::polymorphic_allocator" = type { ptr }
%"class.pbrt::ColorEncoding" = type { %"class.pbrt::TaggedPointer" }
%"class.pbrt::TaggedPointer" = type { i64 }
%"class.pstd::vector.9" = type { %"class.pstd::pmr::polymorphic_allocator.10", ptr, i64, i64 }
%"class.pstd::pmr::polymorphic_allocator.10" = type { ptr }
%"class.pstd::vector.11" = type { %"class.pstd::pmr::polymorphic_allocator.12", ptr, i64, i64 }
%"class.pstd::pmr::polymorphic_allocator.12" = type { ptr }
%"class.pstd::vector.13" = type { %"class.pstd::pmr::polymorphic_allocator.14", ptr, i64, i64 }
%"class.pstd::pmr::polymorphic_allocator.14" = type { ptr }
%"class.pstd::pmr::polymorphic_allocator.16" = type { ptr }
%"class.pbrt::Bounds2" = type { %"class.pbrt::Point2", %"class.pbrt::Point2" }
%class.anon.121 = type { ptr }

; Function Attrs: mustprogress nounwind uwtable
define linkonce_odr dso_local noundef nonnull align 8 dereferenceable(8) ptr @_ZN4pbrt13TaggedPointerIJNS_19LinearColorEncodingENS_17sRGBColorEncodingENS_18GammaColorEncodingEEEaSERKS4_(ptr noundef nonnull align 8 dereferenceable(8) %0, ptr noundef nonnull align 8 dereferenceable(8) %1) #3 comdat align 2 {
  %3 = alloca ptr, align 8
  %4 = alloca ptr, align 8
  store ptr %0, ptr %3, align 8, !tbaa !654
  store ptr %1, ptr %4, align 8, !tbaa !654
  %5 = load ptr, ptr %3, align 8
  %6 = load ptr, ptr %4, align 8, !tbaa !654
  %7 = getelementptr inbounds nuw %"class.pbrt::TaggedPointer", ptr %6, i32 0, i32 0
  %8 = load i64, ptr %7, align 8, !tbaa !656
  %9 = getelementptr inbounds nuw %"class.pbrt::TaggedPointer", ptr %5, i32 0, i32 0
  store i64 %8, ptr %9, align 8, !tbaa !656
  ret ptr %5
}

; Function Attrs: inlinehint mustprogress nounwind uwtable
define linkonce_odr dso_local noundef nonnull align 4 dereferenceable(4) ptr @_ZSt3maxIiERKT_S2_S2_(ptr noundef nonnull align 4 dereferenceable(4) %0, ptr noundef nonnull align 4 dereferenceable(4) %1) #4 comdat {
  %3 = alloca ptr, align 8
  %4 = alloca ptr, align 8
  %5 = alloca ptr, align 8
  store ptr %0, ptr %4, align 8, !tbaa !64
  store ptr %1, ptr %5, align 8, !tbaa !64
  %6 = load ptr, ptr %4, align 8, !tbaa !64
  %7 = load i32, ptr %6, align 4, !tbaa !50
  %8 = load ptr, ptr %5, align 8, !tbaa !64
  %9 = load i32, ptr %8, align 4, !tbaa !50
  %10 = icmp slt i32 %7, %9
  br i1 %10, label %11, label %13

11:                                               ; preds = %2
  %12 = load ptr, ptr %5, align 8, !tbaa !64
  store ptr %12, ptr %3, align 8
  br label %15

13:                                               ; preds = %2
  %14 = load ptr, ptr %4, align 8, !tbaa !64
  store ptr %14, ptr %3, align 8
  br label %15

15:                                               ; preds = %13, %11
  %16 = load ptr, ptr %3, align 8
  ret ptr %16
}

; Function Attrs: inlinehint mustprogress nounwind uwtable
define linkonce_odr dso_local noundef nonnull align 4 dereferenceable(4) ptr @_ZSt3minIiERKT_S2_S2_(ptr noundef nonnull align 4 dereferenceable(4) %0, ptr noundef nonnull align 4 dereferenceable(4) %1) #4 comdat {
  %3 = alloca ptr, align 8
  %4 = alloca ptr, align 8
  %5 = alloca ptr, align 8
  store ptr %0, ptr %4, align 8, !tbaa !64
  store ptr %1, ptr %5, align 8, !tbaa !64
  %6 = load ptr, ptr %5, align 8, !tbaa !64
  %7 = load i32, ptr %6, align 4, !tbaa !50
  %8 = load ptr, ptr %4, align 8, !tbaa !64
  %9 = load i32, ptr %8, align 4, !tbaa !50
  %10 = icmp slt i32 %7, %9
  br i1 %10, label %11, label %13

11:                                               ; preds = %2
  %12 = load ptr, ptr %5, align 8, !tbaa !64
  store ptr %12, ptr %3, align 8
  br label %15

13:                                               ; preds = %2
  %14 = load ptr, ptr %4, align 8, !tbaa !64
  store ptr %14, ptr %3, align 8
  br label %15

15:                                               ; preds = %13, %11
  %16 = load ptr, ptr %3, align 8
  ret ptr %16
}

; Function Attrs: inlinehint mustprogress uwtable
define linkonce_odr dso_local noundef nonnull align 8 dereferenceable(8) ptr @_ZN4pbrt13ColorEncodingaSEOS0_(ptr noundef nonnull align 8 dereferenceable(8) %0, ptr noundef nonnull align 8 dereferenceable(8) %1) #7 comdat align 2 {
  %3 = alloca ptr, align 8
  %4 = alloca ptr, align 8
  store ptr %0, ptr %3, align 8, !tbaa !89
  store ptr %1, ptr %4, align 8, !tbaa !89
  %5 = load ptr, ptr %3, align 8
  %6 = load ptr, ptr %4, align 8, !tbaa !89
  %7 = call noundef nonnull align 8 dereferenceable(8) ptr @_ZN4pbrt13TaggedPointerIJNS_19LinearColorEncodingENS_17sRGBColorEncodingENS_18GammaColorEncodingEEEaSERKS4_(ptr noundef nonnull align 8 dereferenceable(8) %5, ptr noundef nonnull align 8 dereferenceable(8) %6)
  ret ptr %5
}

; Function Attrs: inlinehint mustprogress uwtable
define linkonce_odr dso_local i64 @_ZN4pbrt3MaxINS_6Point2EiEET_IT0_ENS_6Tuple2IS2_S3_EES6_(i64 %0, i64 %1) #7 comdat {
  %3 = alloca %"class.pbrt::Point2", align 4
  %4 = alloca %"class.pbrt::Tuple2", align 4
  %5 = alloca %"class.pbrt::Tuple2", align 4
  store i64 %0, ptr %4, align 4
  store i64 %1, ptr %5, align 4
  %6 = getelementptr inbounds nuw %"class.pbrt::Tuple2", ptr %4, i32 0, i32 0
  %7 = getelementptr inbounds nuw %"class.pbrt::Tuple2", ptr %5, i32 0, i32 0
  %8 = call noundef nonnull align 4 dereferenceable(4) ptr @_ZSt3maxIiERKT_S2_S2_(ptr noundef nonnull align 4 dereferenceable(4) %6, ptr noundef nonnull align 4 dereferenceable(4) %7)
  %9 = load i32, ptr %8, align 4, !tbaa !50
  %10 = getelementptr inbounds nuw %"class.pbrt::Tuple2", ptr %4, i32 0, i32 1
  %11 = getelementptr inbounds nuw %"class.pbrt::Tuple2", ptr %5, i32 0, i32 1
  %12 = call noundef nonnull align 4 dereferenceable(4) ptr @_ZSt3maxIiERKT_S2_S2_(ptr noundef nonnull align 4 dereferenceable(4) %10, ptr noundef nonnull align 4 dereferenceable(4) %11)
  %13 = load i32, ptr %12, align 4, !tbaa !50
  call void @_ZN4pbrt6Point2IiEC2Eii(ptr noundef nonnull align 4 dereferenceable(8) %3, i32 noundef %9, i32 noundef %13)
  %14 = getelementptr inbounds nuw %"class.pbrt::Point2", ptr %3, i32 0, i32 0
  %15 = load i64, ptr %14, align 4
  ret i64 %15
}

; Function Attrs: inlinehint mustprogress uwtable
define linkonce_odr dso_local i64 @_ZN4pbrt3MinINS_6Point2EiEET_IT0_ENS_6Tuple2IS2_S3_EES6_(i64 %0, i64 %1) #7 comdat {
  %3 = alloca %"class.pbrt::Point2", align 4
  %4 = alloca %"class.pbrt::Tuple2", align 4
  %5 = alloca %"class.pbrt::Tuple2", align 4
  store i64 %0, ptr %4, align 4
  store i64 %1, ptr %5, align 4
  %6 = getelementptr inbounds nuw %"class.pbrt::Tuple2", ptr %4, i32 0, i32 0
  %7 = getelementptr inbounds nuw %"class.pbrt::Tuple2", ptr %5, i32 0, i32 0
  %8 = call noundef nonnull align 4 dereferenceable(4) ptr @_ZSt3minIiERKT_S2_S2_(ptr noundef nonnull align 4 dereferenceable(4) %6, ptr noundef nonnull align 4 dereferenceable(4) %7)
  %9 = load i32, ptr %8, align 4, !tbaa !50
  %10 = getelementptr inbounds nuw %"class.pbrt::Tuple2", ptr %4, i32 0, i32 1
  %11 = getelementptr inbounds nuw %"class.pbrt::Tuple2", ptr %5, i32 0, i32 1
  %12 = call noundef nonnull align 4 dereferenceable(4) ptr @_ZSt3minIiERKT_S2_S2_(ptr noundef nonnull align 4 dereferenceable(4) %10, ptr noundef nonnull align 4 dereferenceable(4) %11)
  %13 = load i32, ptr %12, align 4, !tbaa !50
  call void @_ZN4pbrt6Point2IiEC2Eii(ptr noundef nonnull align 4 dereferenceable(8) %3, i32 noundef %9, i32 noundef %13)
  %14 = getelementptr inbounds nuw %"class.pbrt::Point2", ptr %3, i32 0, i32 0
  %15 = load i64, ptr %14, align 4
  ret i64 %15
}

; Function Attrs: mustprogress nounwind uwtable
define linkonce_odr dso_local void @_ZN4pbrt6Tuple2INS_6Point2EiEC2Eii(ptr noundef nonnull align 4 dereferenceable(8) %0, i32 noundef %1, i32 noundef %2) unnamed_addr #3 comdat align 2 {
  %4 = alloca ptr, align 8
  %5 = alloca i32, align 4
  %6 = alloca i32, align 4
  store ptr %0, ptr %4, align 8, !tbaa !164
  store i32 %1, ptr %5, align 4, !tbaa !50
  store i32 %2, ptr %6, align 4, !tbaa !50
  %7 = load ptr, ptr %4, align 8
  %8 = getelementptr inbounds nuw %"class.pbrt::Tuple2", ptr %7, i32 0, i32 0
  %9 = load i32, ptr %5, align 4, !tbaa !50
  store i32 %9, ptr %8, align 4, !tbaa !124
  %10 = getelementptr inbounds nuw %"class.pbrt::Tuple2", ptr %7, i32 0, i32 1
  %11 = load i32, ptr %6, align 4, !tbaa !50
  store i32 %11, ptr %10, align 4, !tbaa !126
  br label %12

12:                                               ; preds = %3
  br label %13

13:                                               ; preds = %12
  ret void
}

; Function Attrs: mustprogress nounwind uwtable
define linkonce_odr dso_local noundef nonnull align 4 dereferenceable(4) ptr @_ZNSt14__array_traitsIiLm4EE6_S_refERA4_Kim(ptr noundef nonnull align 4 dereferenceable(16) %0, i64 noundef %1) #3 comdat align 2 {
  %3 = alloca ptr, align 8
  %4 = alloca i64, align 8
  store ptr %0, ptr %3, align 8, !tbaa !64
  store i64 %1, ptr %4, align 8, !tbaa !100
  %5 = load ptr, ptr %3, align 8, !tbaa !64
  %6 = load i64, ptr %4, align 8, !tbaa !100
  %7 = getelementptr inbounds nuw [4 x i32], ptr %5, i64 0, i64 %6
  ret ptr %7
}

; Function Attrs: inlinehint mustprogress uwtable
define linkonce_odr dso_local noundef nonnull align 8 dereferenceable(152) ptr @_ZN4pbrt5ImageaSEOS0_(ptr noundef nonnull align 8 dereferenceable(152) %0, ptr noundef nonnull align 8 dereferenceable(152) %1) #7 comdat align 2 {
  %3 = alloca ptr, align 8
  %4 = alloca ptr, align 8
  store ptr %0, ptr %3, align 8, !tbaa !73
  store ptr %1, ptr %4, align 8, !tbaa !73
  %5 = load ptr, ptr %3, align 8
  %6 = getelementptr inbounds nuw %"class.pbrt::Image", ptr %5, i32 0, i32 0
  %7 = load ptr, ptr %4, align 8
  %8 = getelementptr inbounds nuw %"class.pbrt::Image", ptr %7, i32 0, i32 0
  call void @llvm.memcpy.p0.p0.i64(ptr align 8 %6, ptr align 8 %8, i64 12, i1 false)
  %9 = getelementptr inbounds nuw %"class.pbrt::Image", ptr %5, i32 0, i32 2
  %10 = load ptr, ptr %4, align 8, !tbaa !73
  %11 = getelementptr inbounds nuw %"class.pbrt::Image", ptr %10, i32 0, i32 2
  %12 = call noundef nonnull align 8 dereferenceable(32) ptr @_ZN4pstd6vectorINSt7__cxx1112basic_stringIcSt11char_traitsIcESaIcEEENS_3pmr21polymorphic_allocatorIS6_EEEaSEOSA_(ptr noundef nonnull align 8 dereferenceable(32) %9, ptr noundef nonnull align 8 dereferenceable(32) %11)
  %13 = getelementptr inbounds nuw %"class.pbrt::Image", ptr %5, i32 0, i32 3
  %14 = load ptr, ptr %4, align 8, !tbaa !73
  %15 = getelementptr inbounds nuw %"class.pbrt::Image", ptr %14, i32 0, i32 3
  %16 = call noundef nonnull align 8 dereferenceable(8) ptr @_ZN4pbrt13ColorEncodingaSEOS0_(ptr noundef nonnull align 8 dereferenceable(8) %13, ptr noundef nonnull align 8 dereferenceable(8) %15)
  %17 = getelementptr inbounds nuw %"class.pbrt::Image", ptr %5, i32 0, i32 4
  %18 = load ptr, ptr %4, align 8, !tbaa !73
  %19 = getelementptr inbounds nuw %"class.pbrt::Image", ptr %18, i32 0, i32 4
  %20 = call noundef nonnull align 8 dereferenceable(32) ptr @_ZN4pstd6vectorIhNS_3pmr21polymorphic_allocatorIhEEEaSEOS4_(ptr noundef nonnull align 8 dereferenceable(32) %17, ptr noundef nonnull align 8 dereferenceable(32) %19)
  %21 = getelementptr inbounds nuw %"class.pbrt::Image", ptr %5, i32 0, i32 5
  %22 = load ptr, ptr %4, align 8, !tbaa !73
  %23 = getelementptr inbounds nuw %"class.pbrt::Image", ptr %22, i32 0, i32 5
  %24 = call noundef nonnull align 8 dereferenceable(32) ptr @_ZN4pstd6vectorIN4pbrt4HalfENS_3pmr21polymorphic_allocatorIS2_EEEaSEOS6_(ptr noundef nonnull align 8 dereferenceable(32) %21, ptr noundef nonnull align 8 dereferenceable(32) %23)
  %25 = getelementptr inbounds nuw %"class.pbrt::Image", ptr %5, i32 0, i32 6
  %26 = load ptr, ptr %4, align 8, !tbaa !73
  %27 = getelementptr inbounds nuw %"class.pbrt::Image", ptr %26, i32 0, i32 6
  %28 = call noundef nonnull align 8 dereferenceable(32) ptr @_ZN4pstd6vectorIfNS_3pmr21polymorphic_allocatorIfEEEaSEOS4_(ptr noundef nonnull align 8 dereferenceable(32) %25, ptr noundef nonnull align 8 dereferenceable(32) %27)
  ret ptr %5
}

; Function Attrs: mustprogress nounwind uwtable
define linkonce_odr dso_local void @_ZN4pstd3pmr21polymorphic_allocatorISt4byteEC2Ev(ptr noundef nonnull align 8 dereferenceable(8) %0) unnamed_addr #3 comdat align 2 {
  %2 = alloca ptr, align 8
  store ptr %0, ptr %2, align 8, !tbaa !93
  %3 = load ptr, ptr %2, align 8
  %4 = call noundef ptr @_ZN4pstd3pmr19new_delete_resourceEv() #5
  %5 = getelementptr inbounds nuw %"class.pstd::pmr::polymorphic_allocator.16", ptr %3, i32 0, i32 0
  store ptr %4, ptr %5, align 8, !tbaa !95
  ret void
}

; Function Attrs: mustprogress uwtable
define linkonce_odr dso_local void @_ZN4pbrt7Bounds2IiEC2ENS_6Point2IiEES3_(ptr noundef nonnull align 4 dereferenceable(16) %0, i64 %1, i64 %2) unnamed_addr #1 comdat align 2 {
  %4 = alloca %"class.pbrt::Point2", align 4
  %5 = alloca %"class.pbrt::Point2", align 4
  %6 = alloca ptr, align 8
  %7 = alloca %"class.pbrt::Tuple2", align 4
  %8 = alloca %"class.pbrt::Tuple2", align 4
  %9 = alloca %"class.pbrt::Tuple2", align 4
  %10 = alloca %"class.pbrt::Tuple2", align 4
  %11 = getelementptr inbounds nuw %"class.pbrt::Point2", ptr %4, i32 0, i32 0
  store i64 %1, ptr %11, align 4
  %12 = getelementptr inbounds nuw %"class.pbrt::Point2", ptr %5, i32 0, i32 0
  store i64 %2, ptr %12, align 4
  store ptr %0, ptr %6, align 8, !tbaa !152
  %13 = load ptr, ptr %6, align 8
  %14 = getelementptr inbounds nuw %"class.pbrt::Bounds2", ptr %13, i32 0, i32 0
  call void @llvm.memcpy.p0.p0.i64(ptr align 4 %7, ptr align 4 %4, i64 8, i1 false), !tbaa.struct !168
  call void @llvm.memcpy.p0.p0.i64(ptr align 4 %8, ptr align 4 %5, i64 8, i1 false), !tbaa.struct !168
  %15 = load i64, ptr %7, align 4
  %16 = load i64, ptr %8, align 4
  %17 = call i64 @_ZN4pbrt3MinINS_6Point2EiEET_IT0_ENS_6Tuple2IS2_S3_EES6_(i64 %15, i64 %16)
  %18 = getelementptr inbounds nuw %"class.pbrt::Point2", ptr %14, i32 0, i32 0
  store i64 %17, ptr %18, align 4
  %19 = getelementptr inbounds nuw %"class.pbrt::Bounds2", ptr %13, i32 0, i32 1
  call void @llvm.memcpy.p0.p0.i64(ptr align 4 %9, ptr align 4 %4, i64 8, i1 false), !tbaa.struct !168
  call void @llvm.memcpy.p0.p0.i64(ptr align 4 %10, ptr align 4 %5, i64 8, i1 false), !tbaa.struct !168
  %20 = load i64, ptr %9, align 4
  %21 = load i64, ptr %10, align 4
  %22 = call i64 @_ZN4pbrt3MaxINS_6Point2EiEET_IT0_ENS_6Tuple2IS2_S3_EES6_(i64 %20, i64 %21)
  %23 = getelementptr inbounds nuw %"class.pbrt::Point2", ptr %19, i32 0, i32 0
  store i64 %22, ptr %23, align 4
  ret void
}

; Function Attrs: mustprogress uwtable
define linkonce_odr dso_local void @_ZN4pbrt6Point2IiEC2Eii(ptr noundef nonnull align 4 dereferenceable(8) %0, i32 noundef %1, i32 noundef %2) unnamed_addr #1 comdat align 2 {
  %4 = alloca ptr, align 8
  %5 = alloca i32, align 4
  %6 = alloca i32, align 4
  store ptr %0, ptr %4, align 8, !tbaa !85
  store i32 %1, ptr %5, align 4, !tbaa !50
  store i32 %2, ptr %6, align 4, !tbaa !50
  %7 = load ptr, ptr %4, align 8
  %8 = load i32, ptr %5, align 4, !tbaa !50
  %9 = load i32, ptr %6, align 4, !tbaa !50
  call void @_ZN4pbrt6Tuple2INS_6Point2EiEC2Eii(ptr noundef nonnull align 4 dereferenceable(8) %7, i32 noundef %8, i32 noundef %9)
  ret void
}

; Function Attrs: mustprogress nounwind uwtable
define linkonce_odr dso_local noundef nonnull align 4 dereferenceable(4) ptr @_ZNSt5arrayIiLm4EEixEm(ptr noundef nonnull align 4 dereferenceable(16) %0, i64 noundef %1) #3 comdat align 2 {
  %3 = alloca ptr, align 8
  %4 = alloca i64, align 8
  store ptr %0, ptr %3, align 8, !tbaa !315
  store i64 %1, ptr %4, align 8, !tbaa !100
  %5 = load ptr, ptr %3, align 8
  %6 = getelementptr inbounds nuw %"struct.std::array", ptr %5, i32 0, i32 0
  %7 = load i64, ptr %4, align 8, !tbaa !100
  %8 = call noundef nonnull align 4 dereferenceable(4) ptr @_ZNSt14__array_traitsIiLm4EE6_S_refERA4_Kim(ptr noundef nonnull align 4 dereferenceable(16) %6, i64 noundef %7) #5
  ret ptr %8
}

; Function Attrs: inlinehint mustprogress uwtable
define internal void @"_ZZ5errorSt6vectorINSt7__cxx1112basic_stringIcSt11char_traitsIcESaIcEEESaIS5_EEENK3$_3clERN4pbrt5ImageE"(ptr noundef nonnull align 8 dereferenceable(8) %0, ptr noundef nonnull align 8 dereferenceable(152) %1) #7 align 2 personality ptr @__gxx_personality_v0 {
  %3 = alloca ptr, align 8
  %4 = alloca ptr, align 8
  %5 = alloca %"class.pbrt::Image", align 8
  %6 = alloca %"class.pbrt::Bounds2", align 4
  %7 = alloca %"class.pbrt::Point2", align 4
  %8 = alloca %"class.pbrt::Point2", align 4
  %9 = alloca %"class.pstd::pmr::polymorphic_allocator.16", align 8
  %10 = alloca ptr, align 8
  %11 = alloca i32, align 4
  store ptr %0, ptr %3, align 8, !tbaa !78
  store ptr %1, ptr %4, align 8, !tbaa !73
  %12 = load ptr, ptr %3, align 8
  %13 = getelementptr inbounds nuw %class.anon.121, ptr %12, i32 0, i32 0
  %14 = load ptr, ptr %13, align 8, !tbaa !332
  %15 = call noundef nonnull align 4 dereferenceable(4) ptr @_ZNSt5arrayIiLm4EEixEm(ptr noundef nonnull align 4 dereferenceable(16) %14, i64 noundef 0) #5
  %16 = load i32, ptr %15, align 4, !tbaa !50
  %17 = icmp sge i32 %16, 0
  br i1 %17, label %18, label %55

18:                                               ; preds = %2
  %19 = getelementptr inbounds nuw %class.anon.121, ptr %12, i32 0, i32 0
  %20 = load ptr, ptr %19, align 8, !tbaa !332
  %21 = call noundef nonnull align 4 dereferenceable(4) ptr @_ZNSt5arrayIiLm4EEixEm(ptr noundef nonnull align 4 dereferenceable(16) %20, i64 noundef 2) #5
  %22 = load i32, ptr %21, align 4, !tbaa !50
  %23 = icmp sge i32 %22, 0
  br i1 %23, label %24, label %55

24:                                               ; preds = %18
  call void @llvm.lifetime.start.p0(i64 152, ptr %5) #5
  %25 = load ptr, ptr %4, align 8, !tbaa !73
  call void @llvm.lifetime.start.p0(i64 16, ptr %6) #5
  %26 = getelementptr inbounds nuw %class.anon.121, ptr %12, i32 0, i32 0
  %27 = load ptr, ptr %26, align 8, !tbaa !332
  %28 = call noundef nonnull align 4 dereferenceable(4) ptr @_ZNSt5arrayIiLm4EEixEm(ptr noundef nonnull align 4 dereferenceable(16) %27, i64 noundef 0) #5
  %29 = load i32, ptr %28, align 4, !tbaa !50
  %30 = getelementptr inbounds nuw %class.anon.121, ptr %12, i32 0, i32 0
  %31 = load ptr, ptr %30, align 8, !tbaa !332
  %32 = call noundef nonnull align 4 dereferenceable(4) ptr @_ZNSt5arrayIiLm4EEixEm(ptr noundef nonnull align 4 dereferenceable(16) %31, i64 noundef 2) #5
  %33 = load i32, ptr %32, align 4, !tbaa !50
  call void @_ZN4pbrt6Point2IiEC2Eii(ptr noundef nonnull align 4 dereferenceable(8) %7, i32 noundef %29, i32 noundef %33)
  %34 = getelementptr inbounds nuw %class.anon.121, ptr %12, i32 0, i32 0
  %35 = load ptr, ptr %34, align 8, !tbaa !332
  %36 = call noundef nonnull align 4 dereferenceable(4) ptr @_ZNSt5arrayIiLm4EEixEm(ptr noundef nonnull align 4 dereferenceable(16) %35, i64 noundef 1) #5
  %37 = load i32, ptr %36, align 4, !tbaa !50
  %38 = getelementptr inbounds nuw %class.anon.121, ptr %12, i32 0, i32 0
  %39 = load ptr, ptr %38, align 8, !tbaa !332
  %40 = call noundef nonnull align 4 dereferenceable(4) ptr @_ZNSt5arrayIiLm4EEixEm(ptr noundef nonnull align 4 dereferenceable(16) %39, i64 noundef 3) #5
  %41 = load i32, ptr %40, align 4, !tbaa !50
  call void @_ZN4pbrt6Point2IiEC2Eii(ptr noundef nonnull align 4 dereferenceable(8) %8, i32 noundef %37, i32 noundef %41)
  %42 = getelementptr inbounds nuw %"class.pbrt::Point2", ptr %7, i32 0, i32 0
  %43 = load i64, ptr %42, align 4
  %44 = getelementptr inbounds nuw %"class.pbrt::Point2", ptr %8, i32 0, i32 0
  %45 = load i64, ptr %44, align 4
  call void @_ZN4pbrt7Bounds2IiEC2ENS_6Point2IiEES3_(ptr noundef nonnull align 4 dereferenceable(16) %6, i64 %43, i64 %45)
  call void @_ZN4pstd3pmr21polymorphic_allocatorISt4byteEC2Ev(ptr noundef nonnull align 8 dereferenceable(8) %9) #5
  %46 = getelementptr inbounds nuw %"class.pstd::pmr::polymorphic_allocator.16", ptr %9, i32 0, i32 0
  %47 = load ptr, ptr %46, align 8
  call void @_ZNK4pbrt5Image4CropERKNS_7Bounds2IiEEN4pstd3pmr21polymorphic_allocatorISt4byteEE(ptr dead_on_unwind writable sret(%"class.pbrt::Image") align 8 %5, ptr noundef nonnull align 8 dereferenceable(152) %25, ptr noundef nonnull align 4 dereferenceable(16) %6, ptr %47)
  %48 = load ptr, ptr %4, align 8, !tbaa !73
  %49 = invoke noundef nonnull align 8 dereferenceable(152) ptr @_ZN4pbrt5ImageaSEOS0_(ptr noundef nonnull align 8 dereferenceable(152) %48, ptr noundef nonnull align 8 dereferenceable(152) %5)
          to label %50 unwind label %51

50:                                               ; preds = %24
  call void @_ZN4pbrt5ImageD2Ev(ptr noundef nonnull align 8 dereferenceable(152) %5) #5
  call void @llvm.lifetime.end.p0(i64 16, ptr %6) #5
  call void @llvm.lifetime.end.p0(i64 152, ptr %5) #5
  br label %55

51:                                               ; preds = %24
  %52 = landingpad { ptr, i32 }
          cleanup
  %53 = extractvalue { ptr, i32 } %52, 0
  store ptr %53, ptr %10, align 8
  %54 = extractvalue { ptr, i32 } %52, 1
  store i32 %54, ptr %11, align 4
  call void @_ZN4pbrt5ImageD2Ev(ptr noundef nonnull align 8 dereferenceable(152) %5) #5
  call void @llvm.lifetime.end.p0(i64 16, ptr %6) #5
  call void @llvm.lifetime.end.p0(i64 152, ptr %5) #5
  br label %56

55:                                               ; preds = %50, %18, %2
  ret void

56:                                               ; preds = %51
  %57 = load ptr, ptr %10, align 8
  %58 = load i32, ptr %11, align 4
  %59 = insertvalue { ptr, i32 } poison, ptr %57, 0
  %60 = insertvalue { ptr, i32 } %59, i32 %58, 1
  resume { ptr, i32 } %60
}