; Function Attrs: inlinehint mustprogress uwtable
define internal fastcc void @"_ZZ5errorSt6vectorINSt7__cxx1112basic_stringIcSt11char_traitsIcESaIcEEESaIS5_EEENK3$_3clERN4pbrt5ImageE"(ptr readonly captures(none) %.0.val, ptr noundef nonnull align 8 dereferenceable(152) %0) unnamed_addr #13 align 2 personality ptr @__gxx_personality_v0 {
  %2 = alloca %"class.pbrt::Image", align 8
  %3 = alloca %"class.pbrt::Bounds2", align 8
  %4 = load i32, ptr %.0.val, align 4, !tbaa !37
  %5 = icmp sgt i32 %4, -1
  br i1 %5, label %6, label %34

6:                                                ; preds = %1
  %7 = getelementptr inbounds nuw i8, ptr %.0.val, i64 8
  %8 = load i32, ptr %7, align 4, !tbaa !37
  %9 = icmp sgt i32 %8, -1
  br i1 %9, label %10, label %34

10:                                               ; preds = %6
  call void @llvm.lifetime.start.p0(i64 152, ptr nonnull %2) #38
  call void @llvm.lifetime.start.p0(i64 16, ptr nonnull %3) #38
  %11 = getelementptr inbounds nuw i8, ptr %.0.val, i64 4
  %12 = load i32, ptr %11, align 4, !tbaa !37
  %13 = getelementptr inbounds nuw i8, ptr %.0.val, i64 12
  %14 = load i32, ptr %13, align 4, !tbaa !37
  %.sroa.speculated4.i.i = tail call i32 @llvm.smin.i32(i32 %12, i32 %4)
  %.sroa.speculated.i.i = tail call i32 @llvm.smin.i32(i32 %14, i32 %8)
  %.sroa.2.0.insert.ext.i.i = zext i32 %.sroa.speculated.i.i to i64
  %.sroa.2.0.insert.shift.i.i = shl nuw i64 %.sroa.2.0.insert.ext.i.i, 32
  %.sroa.09.0.insert.ext.i.i = zext i32 %.sroa.speculated4.i.i to i64
  %.sroa.09.0.insert.insert.i.i = or disjoint i64 %.sroa.2.0.insert.shift.i.i, %.sroa.09.0.insert.ext.i.i
  store i64 %.sroa.09.0.insert.insert.i.i, ptr %3, align 8
  %15 = getelementptr inbounds nuw i8, ptr %3, i64 8
  %.sroa.speculated4.i14.i = tail call i32 @llvm.smax.i32(i32 %4, i32 %12)
  %.sroa.speculated.i15.i = tail call i32 @llvm.smax.i32(i32 %8, i32 %14)
  %.sroa.2.0.insert.ext.i16.i = zext nneg i32 %.sroa.speculated.i15.i to i64
  %.sroa.2.0.insert.shift.i17.i = shl nuw nsw i64 %.sroa.2.0.insert.ext.i16.i, 32
  %.sroa.09.0.insert.ext.i18.i = zext nneg i32 %.sroa.speculated4.i14.i to i64
  %.sroa.09.0.insert.insert.i19.i = or disjoint i64 %.sroa.2.0.insert.shift.i17.i, %.sroa.09.0.insert.ext.i18.i
  store i64 %.sroa.09.0.insert.insert.i19.i, ptr %15, align 8
  %16 = tail call noundef ptr @_ZN4pstd3pmr19new_delete_resourceEv() #38
  call void @_ZNK4pbrt5Image4CropERKNS_7Bounds2IiEEN4pstd3pmr21polymorphic_allocatorISt4byteEE(ptr dead_on_unwind nonnull writable sret(%"class.pbrt::Image") align 8 %2, ptr noundef nonnull align 8 dereferenceable(152) %0, ptr noundef nonnull align 4 dereferenceable(16) %3, ptr %16)
  call void @llvm.memcpy.p0.p0.i64(ptr noundef nonnull align 8 dereferenceable(152) %0, ptr noundef nonnull align 8 dereferenceable(152) %2, i64 12, i1 false)
  %17 = getelementptr inbounds nuw i8, ptr %0, i64 16
  %18 = getelementptr inbounds nuw i8, ptr %2, i64 16
  %19 = invoke noundef nonnull align 8 dereferenceable(32) ptr @_ZN4pstd6vectorINSt7__cxx1112basic_stringIcSt11char_traitsIcESaIcEEENS_3pmr21polymorphic_allocatorIS6_EEEaSEOSA_(ptr noundef nonnull align 8 dereferenceable(32) %17, ptr noundef nonnull align 8 dereferenceable(32) %18)
          to label %.noexc unwind label %32

.noexc:                                           ; preds = %10
  %20 = getelementptr inbounds nuw i8, ptr %0, i64 48
  %21 = getelementptr inbounds nuw i8, ptr %2, i64 48
  %22 = load i64, ptr %21, align 8, !tbaa !53
  store i64 %22, ptr %20, align 8, !tbaa !53
  %23 = getelementptr inbounds nuw i8, ptr %0, i64 56
  %24 = getelementptr inbounds nuw i8, ptr %2, i64 56
  %25 = invoke noundef nonnull align 8 dereferenceable(32) ptr @_ZN4pstd6vectorIhNS_3pmr21polymorphic_allocatorIhEEEaSEOS4_(ptr noundef nonnull align 8 dereferenceable(32) %23, ptr noundef nonnull align 8 dereferenceable(32) %24)
          to label %.noexc4 unwind label %32

.noexc4:                                          ; preds = %.noexc
  %26 = getelementptr inbounds nuw i8, ptr %0, i64 88
  %27 = getelementptr inbounds nuw i8, ptr %2, i64 88
  %28 = invoke noundef nonnull align 8 dereferenceable(32) ptr @_ZN4pstd6vectorIN4pbrt4HalfENS_3pmr21polymorphic_allocatorIS2_EEEaSEOS6_(ptr noundef nonnull align 8 dereferenceable(32) %26, ptr noundef nonnull align 8 dereferenceable(32) %27)
          to label %.noexc5 unwind label %32

.noexc5:                                          ; preds = %.noexc4
  %29 = getelementptr inbounds nuw i8, ptr %0, i64 120
  %30 = getelementptr inbounds nuw i8, ptr %2, i64 120
  %31 = invoke noundef nonnull align 8 dereferenceable(32) ptr @_ZN4pstd6vectorIfNS_3pmr21polymorphic_allocatorIfEEEaSEOS4_(ptr noundef nonnull align 8 dereferenceable(32) %29, ptr noundef nonnull align 8 dereferenceable(32) %30)
          to label %_ZN4pbrt5ImageaSEOS0_.exit unwind label %32

_ZN4pbrt5ImageaSEOS0_.exit:                       ; preds = %.noexc5
  call void @_ZN4pbrt5ImageD2Ev(ptr noundef nonnull align 8 dereferenceable(152) %2) #38
  call void @llvm.lifetime.end.p0(i64 16, ptr nonnull %3) #38
  call void @llvm.lifetime.end.p0(i64 152, ptr nonnull %2) #38
  br label %34

32:                                               ; preds = %.noexc5, %.noexc4, %.noexc, %10
  %33 = landingpad { ptr, i32 }
          cleanup
  call void @_ZN4pbrt5ImageD2Ev(ptr noundef nonnull align 8 dereferenceable(152) %2) #38
  call void @llvm.lifetime.end.p0(i64 16, ptr nonnull %3) #38
  call void @llvm.lifetime.end.p0(i64 152, ptr nonnull %2) #38
  resume { ptr, i32 } %33

34:                                               ; preds = %_ZN4pbrt5ImageaSEOS0_.exit, %6, %1
  ret void
}